target datalayout = "e-m:e-p270:32:32-p271:32:32-p272:64:64-i64:64-i128:128-f80:128-n8:16:32:64-S128"
target triple = "x86_64-pc-linux-gnu"

%"struct.duckdb::roaring::RunContainerRLEPair" = type { i16, i16 }
%"struct.duckdb::roaring::ContainerScanState" = type { ptr, i64, i64, i64 }
%"struct.duckdb::roaring::ContainerSegmentScan" = type <{ ptr, i8, i8, [6 x i8] }>
%"struct.duckdb::roaring::RunContainerScanState" = type { %"struct.duckdb::roaring::ContainerScanState", %"struct.duckdb::roaring::RunContainerRLEPair", i8, i64, i64, ptr }
%"struct.duckdb::roaring::CompressedRunContainerScanState" = type { %"struct.duckdb::roaring::RunContainerScanState", ptr, %"struct.duckdb::roaring::ContainerSegmentScan" }

@_ZN6duckdb7roaring20ContainerSegmentScanC1EPh = unnamed_addr alias void (ptr, ptr), ptr @_ZN6duckdb7roaring20ContainerSegmentScanC2EPh

; Function Attrs: mustprogress nounwind uwtable
define linkonce_odr void @_ZN6duckdb7roaring18ContainerScanStateC2Emm(ptr noundef nonnull align 8 dereferenceable(32) %0, i64 noundef %1, i64 noundef %2) unnamed_addr #2 comdat align 2 {
  %4 = alloca ptr, align 8
  %5 = alloca i64, align 8
  %6 = alloca i64, align 8
  store ptr %0, ptr %4, align 8, !tbaa !204
  store i64 %1, ptr %5, align 8, !tbaa !8
  store i64 %2, ptr %6, align 8, !tbaa !8
  %7 = load ptr, ptr %4, align 8
  store ptr getelementptr inbounds inrange(-16, 40) ({ [7 x ptr] }, ptr @_ZTVN6duckdb7roaring18ContainerScanStateE, i32 0, i32 0, i32 2), ptr %7, align 8, !tbaa !242
  %8 = getelementptr inbounds nuw %"struct.duckdb::roaring::ContainerScanState", ptr %7, i32 0, i32 1
  %9 = load i64, ptr %5, align 8, !tbaa !8
  store i64 %9, ptr %8, align 8, !tbaa !455
  %10 = getelementptr inbounds nuw %"struct.duckdb::roaring::ContainerScanState", ptr %7, i32 0, i32 2
  %11 = load i64, ptr %6, align 8, !tbaa !8
  store i64 %11, ptr %10, align 8, !tbaa !206
  %12 = getelementptr inbounds nuw %"struct.duckdb::roaring::ContainerScanState", ptr %7, i32 0, i32 3
  store i64 0, ptr %12, align 8, !tbaa !208
  ret void
}

; Function Attrs: mustprogress nounwind uwtable
define linkonce_odr void @_ZN6duckdb7roaring18ContainerScanStateD2Ev(ptr noundef nonnull align 8 dereferenceable(32) %0) unnamed_addr #2 comdat align 2 {
  %2 = alloca ptr, align 8
  store ptr %0, ptr %2, align 8, !tbaa !204
  ret void
}

; Function Attrs: mustprogress uwtable
define void @_ZN6duckdb7roaring21RunContainerScanStateC2EmmmPh(ptr noundef nonnull align 8 dereferenceable(64) %0, i64 noundef %1, i64 noundef %2, i64 noundef %3, ptr noundef %4) unnamed_addr #0 align 2 {
  %6 = alloca ptr, align 8
  %7 = alloca i64, align 8
  %8 = alloca i64, align 8
  %9 = alloca i64, align 8
  %10 = alloca ptr, align 8
  store ptr %0, ptr %6, align 8, !tbaa !448
  store i64 %1, ptr %7, align 8, !tbaa !8
  store i64 %2, ptr %8, align 8, !tbaa !8
  store i64 %3, ptr %9, align 8, !tbaa !8
  store ptr %4, ptr %10, align 8, !tbaa !18
  %11 = load ptr, ptr %6, align 8
  %12 = load i64, ptr %7, align 8, !tbaa !8
  %13 = load i64, ptr %8, align 8, !tbaa !8
  call void @_ZN6duckdb7roaring18ContainerScanStateC2Emm(ptr noundef nonnull align 8 dereferenceable(32) %11, i64 noundef %12, i64 noundef %13)
  store ptr getelementptr inbounds inrange(-16, 48) ({ [8 x ptr] }, ptr @_ZTVN6duckdb7roaring21RunContainerScanStateE, i32 0, i32 0, i32 2), ptr %11, align 8, !tbaa !242
  %14 = getelementptr inbounds nuw %"struct.duckdb::roaring::RunContainerScanState", ptr %11, i32 0, i32 2
  store i8 0, ptr %14, align 4, !tbaa !450
  %15 = getelementptr inbounds nuw %"struct.duckdb::roaring::RunContainerScanState", ptr %11, i32 0, i32 3
  store i64 0, ptr %15, align 8, !tbaa !452
  %16 = getelementptr inbounds nuw %"struct.duckdb::roaring::RunContainerScanState", ptr %11, i32 0, i32 4
  %17 = load i64, ptr %9, align 8, !tbaa !8
  store i64 %17, ptr %16, align 8, !tbaa !453
  %18 = getelementptr inbounds nuw %"struct.duckdb::roaring::RunContainerScanState", ptr %11, i32 0, i32 5
  %19 = load ptr, ptr %10, align 8, !tbaa !18
  store ptr %19, ptr %18, align 8, !tbaa !454
  ret void
}

; Function Attrs: mustprogress uwtable
define void @_ZN6duckdb7roaring31CompressedRunContainerScanStateC2EmmmPhS2_(ptr noundef nonnull align 8 dereferenceable(88) %0, i64 noundef %1, i64 noundef %2, i64 noundef %3, ptr noundef %4, ptr noundef %5) unnamed_addr #0 align 2 personality ptr @__gxx_personality_v0 {
  %7 = alloca ptr, align 8
  %8 = alloca i64, align 8
  %9 = alloca i64, align 8
  %10 = alloca i64, align 8
  %11 = alloca ptr, align 8
  %12 = alloca ptr, align 8
  %13 = alloca ptr, align 8
  %14 = alloca i32, align 4
  store ptr %0, ptr %7, align 8, !tbaa !461
  store i64 %1, ptr %8, align 8, !tbaa !8
  store i64 %2, ptr %9, align 8, !tbaa !8
  store i64 %3, ptr %10, align 8, !tbaa !8
  store ptr %4, ptr %11, align 8, !tbaa !18
  store ptr %5, ptr %12, align 8, !tbaa !18
  %15 = load ptr, ptr %7, align 8
  %16 = load i64, ptr %8, align 8, !tbaa !8
  %17 = load i64, ptr %9, align 8, !tbaa !8
  %18 = load i64, ptr %10, align 8, !tbaa !8
  %19 = load ptr, ptr %12, align 8, !tbaa !18
  call void @_ZN6duckdb7roaring21RunContainerScanStateC2EmmmPh(ptr noundef nonnull align 8 dereferenceable(64) %15, i64 noundef %16, i64 noundef %17, i64 noundef %18, ptr noundef %19)
  store ptr getelementptr inbounds inrange(-16, 48) ({ [8 x ptr] }, ptr @_ZTVN6duckdb7roaring31CompressedRunContainerScanStateE, i32 0, i32 0, i32 2), ptr %15, align 8, !tbaa !242
  %20 = getelementptr inbounds nuw %"struct.duckdb::roaring::CompressedRunContainerScanState", ptr %15, i32 0, i32 1
  %21 = load ptr, ptr %11, align 8, !tbaa !18
  store ptr %21, ptr %20, align 8, !tbaa !463
  %22 = getelementptr inbounds nuw %"struct.duckdb::roaring::CompressedRunContainerScanState", ptr %15, i32 0, i32 2
  %23 = load ptr, ptr %11, align 8, !tbaa !18
  invoke void @_ZN6duckdb7roaring20ContainerSegmentScanC1EPh(ptr noundef nonnull align 8 dereferenceable(10) %22, ptr noundef %23)
          to label %24 unwind label %25

24:                                               ; preds = %6
  ret void

25:                                               ; preds = %6
  %26 = landingpad { ptr, i32 }
          cleanup
  %27 = extractvalue { ptr, i32 } %26, 0
  store ptr %27, ptr %13, align 8
  %28 = extractvalue { ptr, i32 } %26, 1
  store i32 %28, ptr %14, align 4
  call void @_ZN6duckdb7roaring18ContainerScanStateD2Ev(ptr noundef nonnull align 8 dereferenceable(64) %15) #19
  br label %29

29:                                               ; preds = %25
  %30 = load ptr, ptr %13, align 8
  %31 = load i32, ptr %14, align 4
  %32 = insertvalue { ptr, i32 } poison, ptr %30, 0
  %33 = insertvalue { ptr, i32 } %32, i32 %31, 1
  resume { ptr, i32 } %33
}