; Function Attrs: mustprogress uwtable
define void @_ZN6duckdb7roaring31CompressedRunContainerScanStateC2EmmmPhS2_(ptr noundef nonnull align 8 dereferenceable(88) initializes((0, 32), (36, 37), (40, 72)) %0, i64 noundef %1, i64 noundef %2, i64 noundef %3, ptr noundef %4, ptr noundef %5) unnamed_addr #0 align 2 personality ptr @__gxx_personality_v0 {
  %7 = getelementptr inbounds nuw i8, ptr %0, i64 8
  store i64 %1, ptr %7, align 8, !tbaa !203
  %8 = getelementptr inbounds nuw i8, ptr %0, i64 16
  store i64 %2, ptr %8, align 8, !tbaa !184
  %9 = getelementptr inbounds nuw i8, ptr %0, i64 24
  store i64 0, ptr %9, align 8, !tbaa !186
  %10 = getelementptr inbounds nuw i8, ptr %0, i64 36
  store i8 0, ptr %10, align 4, !tbaa !422
  %11 = getelementptr inbounds nuw i8, ptr %0, i64 40
  store i64 0, ptr %11, align 8, !tbaa !424
  %12 = getelementptr inbounds nuw i8, ptr %0, i64 48
  store i64 %3, ptr %12, align 8, !tbaa !425
  %13 = getelementptr inbounds nuw i8, ptr %0, i64 56
  store ptr %5, ptr %13, align 8, !tbaa !426
  store ptr getelementptr inbounds nuw inrange(-16, 48) (i8, ptr @_ZTVN6duckdb7roaring31CompressedRunContainerScanStateE, i64 16), ptr %0, align 8, !tbaa !136
  %14 = getelementptr inbounds nuw i8, ptr %0, i64 64
  store ptr %4, ptr %14, align 8, !tbaa !431
  %15 = getelementptr inbounds nuw i8, ptr %0, i64 72
  tail call void @_ZN6duckdb7roaring20ContainerSegmentScanC1EPh(ptr noundef nonnull align 8 dereferenceable(10) %15, ptr noundef %4)
  ret void
}